ccollections
OrderedDict
p0
((lp1
(lp2
S'hubble'
p3
aF0.026844000000000003
aa(lp4
S'massless_neutrinos'
p5
aF0.12184199999999999
aa(lp6
S'ombh2'
p7
aF0.00088272
aa(lp8
S'omch2'
p9
aF0.0048116
aa(lp10
S'omnuh2'
p11
aF0.000198
aa(lp12
S're_optical_depth'
p13
aF0.0037
aa(lp14
S'scalar_amp(1)'
p15
acnumpy.core.multiarray
scalar
p16
(cnumpy
dtype
p17
(S'f8'
p18
I0
I1
tp19
Rp20
(I3
S'<'
p21
NNNI-1
I-1
I0
tp22
bS'\xac\x19n\x8d\xcb\xb8\xbf?'
p23
tp24
Rp25
aa(lp26
S'scalar_spectral_index(1)'
p27
aF0.038496
aa(lp28
S'w'
p29
aF-0.04
aatp30
Rp31
.