ccollections
OrderedDict
p0
((lp1
(lp2
S'hubble'
p3
aF0.023488500000000002
aa(lp4
S'massless_neutrinos'
p5
aF0.10661000000000001
aa(lp6
S'ombh2'
p7
aF0.0007723800000000001
aa(lp8
S'omch2'
p9
aF0.00421015
aa(lp10
S'omnuh2'
p11
aF3.15e-05
aa(lp12
S're_optical_depth'
p13
aF0.0032375000000000004
aa(lp14
S'scalar_amp(1)'
p15
aF0.077525
aa(lp16
S'scalar_spectral_index(1)'
p17
aF0.033684000000000006
aa(lp18
S'w'
p19
aF-0.035
aatp20
Rp21
.