ccollections
OrderedDict
p0
((lp1
(lp2
S'hubble'
p3
aF67.11
aa(lp4
S'massless_neutrinos'
p5
aF2.0307
aa(lp6
S're_optical_depth'
p7
aF0.0924518
aa(lp8
S'scalar_amp(1)'
p9
aF2.21545e-09
aa(lp10
S'scalar_spectral_index(1)'
p11
aF0.9624
aatp12
Rp13
.