(dp0
S'massless_neutrinos'
p1
cnumpy.core.multiarray
scalar
p2
(cnumpy
dtype
p3
(S'f8'
p4
I0
I1
tp5
Rp6
(I3
S'<'
p7
NNNI-1
I-1
I0
tp8
bS'{\x14\xaeG\xe1z\x94?'
p9
tp10
Rp11
sS'hubble'
p12
g2
(g6
S'\xfc\xa9\xf1\xd2Mb`?'
p13
tp14
Rp15
sS'scalar_spectral_index(1)'
p16
g2
(g6
S'{\x14\xaeG\xe1z\x94?'
p17
tp18
Rp19
sS'scalar_amp(1)'
p20
g2
(g6
S'\x95dy\xe1\x7f\xfd\xb5='
p21
tp22
Rp23
s.