ccollections
OrderedDict
p0
((lp1
(lp2
S'hubble'
p3
aF67.11
aa(lp4
S'massless_neutrinos'
p5
aF2.0307
aa(lp6
S'ombh2'
p7
aF0.022068
aa(lp8
S'omch2'
p9
aF0.12029
aa(lp10
S'omnuh2'
p11
aF0.0009
aa(lp12
S're_optical_depth'
p13
aF0.0925
aa(lp14
S'scalar_amp(1)'
p15
aF2.215e-09
aa(lp16
S'scalar_spectral_index(1)'
p17
aF0.9624
aa(lp18
S'w'
p19
aF-1.0
aatp20
Rp21
.