ccollections
OrderedDict
p0
((lp1
(lp2
S'hubble'
p3
aF4.0266
aa(lp4
S'massless_neutrinos'
p5
aF0.20307
aa(lp6
S'ombh2'
p7
aF0.00132408
aa(lp8
S'omch2'
p9
aF0.0072174
aa(lp10
S'omnuh2'
p11
aF0.00027
aa(lp12
S're_optical_depth'
p13
aF0.005549999999999999
aa(lp14
S'scalar_amp(1)'
p15
aF1.329e-10
aa(lp16
S'scalar_spectral_index(1)'
p17
aF0.057744
aa(lp18
S'w'
p19
aF-0.06
aatp20
Rp21
.