ccollections
OrderedDict
p0
((lp1
(lp2
S'hubble'
p3
aF0.040266
aa(lp4
S'massless_neutrinos'
p5
aF0.20307
aa(lp6
S'ombh2'
p7
aF0.00132408
aa(lp8
S'omch2'
p9
aF0.0072174
aa(lp10
S'omnuh2'
p11
aF0.00027
aa(lp12
S're_optical_depth'
p13
aF0.005549999999999999
aa(lp14
S'scalar_amp(1)'
p15
acnumpy.core.multiarray
scalar
p16
(cnumpy
dtype
p17
(S'f8'
p18
I0
I1
tp19
Rp20
(I3
S'<'
p21
NNNI-1
I-1
I0
tp22
bS'@\x93\x12\xaa\x98\xca\xc7?'
p23
tp24
Rp25
aa(lp26
S'scalar_spectral_index(1)'
p27
aF0.057744
aa(lp28
S'w'
p29
aF-0.06
aatp30
Rp31
.