ccollections
OrderedDict
p0
((lp1
(lp2
S'hubble'
p3
aF0.033555
aa(lp4
S'massless_neutrinos'
p5
aF0.1523
aa(lp6
S'ombh2'
p7
aF0.0011034
aa(lp8
S'omch2'
p9
aF0.0060145
aa(lp10
S'omnuh2'
p11
aF4.5e-05
aa(lp12
S're_optical_depth'
p13
aF0.004625
aa(lp14
S'scalar_amp(1)'
p15
aF0.11075
aa(lp16
S'scalar_spectral_index(1)'
p17
aF0.04812
aa(lp18
S'w'
p19
aF-0.05
aatp20
Rp21
.