ccollections
OrderedDict
p0
((lp1
(lp2
S'hubble'
p3
aF67.11
aa(lp4
S'massless_neutrinos'
p5
aF2.0307
aa(lp6
S'omnuh2'
p7
aF0.0009
aa(lp8
S're_optical_depth'
p9
aF0.0925
aa(lp10
S'scalar_amp(1)'
p11
aF2.215e-09
aa(lp12
S'scalar_spectral_index(1)'
p13
aF0.9624
aatp14
Rp15
.