ccollections
OrderedDict
p0
((lp1
(lp2
S'hubble'
p3
acnumpy.core.multiarray
scalar
p4
(cnumpy
dtype
p5
(S'f8'
p6
I0
I1
tp7
Rp8
(I3
S'<'
p9
NNNI-1
I-1
I0
tp10
bS'\x00\x00\x00\x00\x00\x00\xf0?'
p11
tp12
Rp13
aa(lp14
S'massless_neutrinos'
p15
ag4
(g8
S'{\x14\xaeG\xe1z\xb4?'
p16
tp17
Rp18
aa(lp19
S'omnuh2'
p20
ag4
(g8
S'\x0f\xd6\xff9\xcc\x977?'
p21
tp22
Rp23
aa(lp24
S're_optical_depth'
p25
ag4
(g8
S'\x95\x0e\xf7\r#\xefr?'
p26
tp27
Rp28
aa(lp29
S'scalar_amp(1)'
p30
ag4
(g8
S'\xbb\xbd\xd7\xd9\xdf|\xcb='
p31
tp32
Rp33
aa(lp34
S'scalar_spectral_index(1)'
p35
ag4
(g8
S'\x9a\x99\x99\x99\x99\x99\xa9?'
p36
tp37
Rp38
aatp39
Rp40
.